; Function Attrs: mustprogress uwtable
define dso_local void @_ZN5vcpkg4Json10parse_fileERKNS_18ReadOnlyFilesystemERKNS_4PathERSt10error_code(ptr dead_on_unwind noalias writable sret(%"struct.vcpkg::ExpectedT") align 8 %0, ptr noundef nonnull align 8 dereferenceable(8) %1, ptr noundef nonnull align 8 dereferenceable(32) %2, ptr noundef nonnull align 8 dereferenceable(16) %3) local_unnamed_addr #8 personality ptr @__gxx_personality_v0 {
  %5 = alloca %"class.std::__cxx11::basic_string", align 8
  %6 = alloca %"struct.vcpkg::LocalizedString", align 8
  %7 = alloca [1 x %"struct.vcpkg::StringView"], align 8
  %8 = alloca %"struct.vcpkg::StringView", align 8
  %9 = load ptr, ptr %1, align 8
  %10 = getelementptr inbounds i8, ptr %9, i64 16
  %11 = load ptr, ptr %10, align 8
  call void %11(ptr dead_on_unwind nonnull writable sret(%"class.std::__cxx11::basic_string") align 8 %5, ptr noundef nonnull align 8 dereferenceable(8) %1, ptr noundef nonnull align 8 dereferenceable(32) %2, ptr noundef nonnull align 8 dereferenceable(16) %3)
  %12 = load i32, ptr %3, align 8
  %.not = icmp eq i32 %12, 0
  br i1 %.not, label %22, label %13

13:                                               ; preds = %4
  %14 = call { ptr, i64 } @_ZNK5vcpkg4PathcvNS_10StringViewEEv(ptr noundef nonnull align 8 dereferenceable(32) %2) #26
  %15 = extractvalue { ptr, i64 } %14, 0
  store ptr %15, ptr %7, align 8
  %16 = getelementptr inbounds i8, ptr %7, i64 8
  %17 = extractvalue { ptr, i64 } %14, 1
  store i64 %17, ptr %16, align 8
  invoke void @_ZN5vcpkg28format_filesystem_call_errorERKSt10error_codeNS_10StringViewESt16initializer_listIS3_E(ptr dead_on_unwind nonnull writable sret(%"struct.vcpkg::LocalizedString") align 8 %6, ptr noundef nonnull align 8 dereferenceable(16) %3, ptr nonnull @.str.13, i64 13, ptr nonnull %7, i64 1)
          to label %18 unwind label %20

18:                                               ; preds = %13
  call void @_ZNSt7__cxx1112basic_stringIcSt11char_traitsIcESaIcEEC1EOS4_(ptr noundef nonnull align 8 dereferenceable(32) %0, ptr noundef nonnull align 8 dereferenceable(32) %6) #26
  %19 = getelementptr inbounds i8, ptr %0, i64 32
  store i8 1, ptr %19, align 8
  call void @_ZNSt7__cxx1112basic_stringIcSt11char_traitsIcESaIcEED1Ev(ptr noundef nonnull align 8 dereferenceable(32) %6) #26
  br label %29

20:                                               ; preds = %22, %13
  %21 = landingpad { ptr, i32 }
          cleanup
  call void @_ZNSt7__cxx1112basic_stringIcSt11char_traitsIcESaIcEED1Ev(ptr noundef nonnull align 8 dereferenceable(32) %5) #26
  resume { ptr, i32 } %21

22:                                               ; preds = %4
  call void @_ZN5vcpkg10StringViewC1ERKNSt7__cxx1112basic_stringIcSt11char_traitsIcESaIcEEE(ptr noundef nonnull align 8 dereferenceable(16) %8, ptr noundef nonnull align 8 dereferenceable(32) %5) #26
  %23 = call { ptr, i64 } @_ZNK5vcpkg4PathcvNS_10StringViewEEv(ptr noundef nonnull align 8 dereferenceable(32) %2) #26
  %24 = extractvalue { ptr, i64 } %23, 0
  %25 = extractvalue { ptr, i64 } %23, 1
  %26 = load ptr, ptr %8, align 8
  %27 = getelementptr inbounds i8, ptr %8, i64 8
  %28 = load i64, ptr %27, align 8
  invoke void @_ZN5vcpkg4Json5parseENS_10StringViewES1_(ptr dead_on_unwind writable sret(%"struct.vcpkg::ExpectedT") align 8 %0, ptr %26, i64 %28, ptr %24, i64 %25)
          to label %29 unwind label %20

29:                                               ; preds = %22, %18
  call void @_ZNSt7__cxx1112basic_stringIcSt11char_traitsIcESaIcEED1Ev(ptr noundef nonnull align 8 dereferenceable(32) %5) #26
  ret void
}